target datalayout = "e-m:e-p270:32:32-p271:32:32-p272:64:64-i64:64-i128:128-f80:128-n8:16:32:64-S128"
target triple = "x86_64-pc-linux-gnu"

%struct.RenameStmt = type { i32, i32, i32, ptr, ptr, ptr, ptr, i32, i8 }

; Function Attrs: nounwind uwtable
define internal zeroext i1 @_equalRenameStmt(ptr noundef %0, ptr noundef %1) #0 {
  %3 = alloca i1, align 1
  %4 = alloca ptr, align 8
  %5 = alloca ptr, align 8
  store ptr %0, ptr %4, align 8
  store ptr %1, ptr %5, align 8
  br label %6

6:                                                ; preds = %2
  %7 = load ptr, ptr %4, align 8
  %8 = getelementptr inbounds nuw %struct.RenameStmt, ptr %7, i32 0, i32 1
  %9 = load i32, ptr %8, align 4
  %10 = load ptr, ptr %5, align 8
  %11 = getelementptr inbounds nuw %struct.RenameStmt, ptr %10, i32 0, i32 1
  %12 = load i32, ptr %11, align 4
  %13 = icmp ne i32 %9, %12
  br i1 %13, label %14, label %15

14:                                               ; preds = %6
  store i1 false, ptr %3, align 1
  br label %136

15:                                               ; preds = %6
  br label %16

16:                                               ; preds = %15
  br label %17

17:                                               ; preds = %16
  %18 = load ptr, ptr %4, align 8
  %19 = getelementptr inbounds nuw %struct.RenameStmt, ptr %18, i32 0, i32 2
  %20 = load i32, ptr %19, align 8
  %21 = load ptr, ptr %5, align 8
  %22 = getelementptr inbounds nuw %struct.RenameStmt, ptr %21, i32 0, i32 2
  %23 = load i32, ptr %22, align 8
  %24 = icmp ne i32 %20, %23
  br i1 %24, label %25, label %26

25:                                               ; preds = %17
  store i1 false, ptr %3, align 1
  br label %136

26:                                               ; preds = %17
  br label %27

27:                                               ; preds = %26
  br label %28

28:                                               ; preds = %27
  %29 = load ptr, ptr %4, align 8
  %30 = getelementptr inbounds nuw %struct.RenameStmt, ptr %29, i32 0, i32 3
  %31 = load ptr, ptr %30, align 8
  %32 = load ptr, ptr %5, align 8
  %33 = getelementptr inbounds nuw %struct.RenameStmt, ptr %32, i32 0, i32 3
  %34 = load ptr, ptr %33, align 8
  %35 = call zeroext i1 @equal(ptr noundef %31, ptr noundef %34)
  br i1 %35, label %37, label %36

36:                                               ; preds = %28
  store i1 false, ptr %3, align 1
  br label %136

37:                                               ; preds = %28
  br label %38

38:                                               ; preds = %37
  br label %39

39:                                               ; preds = %38
  %40 = load ptr, ptr %4, align 8
  %41 = getelementptr inbounds nuw %struct.RenameStmt, ptr %40, i32 0, i32 4
  %42 = load ptr, ptr %41, align 8
  %43 = load ptr, ptr %5, align 8
  %44 = getelementptr inbounds nuw %struct.RenameStmt, ptr %43, i32 0, i32 4
  %45 = load ptr, ptr %44, align 8
  %46 = call zeroext i1 @equal(ptr noundef %42, ptr noundef %45)
  br i1 %46, label %48, label %47

47:                                               ; preds = %39
  store i1 false, ptr %3, align 1
  br label %136

48:                                               ; preds = %39
  br label %49

49:                                               ; preds = %48
  br label %50

50:                                               ; preds = %49
  %51 = load ptr, ptr %4, align 8
  %52 = getelementptr inbounds nuw %struct.RenameStmt, ptr %51, i32 0, i32 5
  %53 = load ptr, ptr %52, align 8
  %54 = icmp ne ptr %53, null
  br i1 %54, label %55, label %69

55:                                               ; preds = %50
  %56 = load ptr, ptr %5, align 8
  %57 = getelementptr inbounds nuw %struct.RenameStmt, ptr %56, i32 0, i32 5
  %58 = load ptr, ptr %57, align 8
  %59 = icmp ne ptr %58, null
  br i1 %59, label %60, label %69

60:                                               ; preds = %55
  %61 = load ptr, ptr %4, align 8
  %62 = getelementptr inbounds nuw %struct.RenameStmt, ptr %61, i32 0, i32 5
  %63 = load ptr, ptr %62, align 8
  %64 = load ptr, ptr %5, align 8
  %65 = getelementptr inbounds nuw %struct.RenameStmt, ptr %64, i32 0, i32 5
  %66 = load ptr, ptr %65, align 8
  %67 = call i32 @strcmp(ptr noundef %63, ptr noundef %66) #8
  %68 = icmp eq i32 %67, 0
  br i1 %68, label %78, label %77

69:                                               ; preds = %55, %50
  %70 = load ptr, ptr %4, align 8
  %71 = getelementptr inbounds nuw %struct.RenameStmt, ptr %70, i32 0, i32 5
  %72 = load ptr, ptr %71, align 8
  %73 = load ptr, ptr %5, align 8
  %74 = getelementptr inbounds nuw %struct.RenameStmt, ptr %73, i32 0, i32 5
  %75 = load ptr, ptr %74, align 8
  %76 = icmp eq ptr %72, %75
  br i1 %76, label %78, label %77

77:                                               ; preds = %69, %60
  store i1 false, ptr %3, align 1
  br label %136

78:                                               ; preds = %69, %60
  br label %79

79:                                               ; preds = %78
  br label %80

80:                                               ; preds = %79
  %81 = load ptr, ptr %4, align 8
  %82 = getelementptr inbounds nuw %struct.RenameStmt, ptr %81, i32 0, i32 6
  %83 = load ptr, ptr %82, align 8
  %84 = icmp ne ptr %83, null
  br i1 %84, label %85, label %99

85:                                               ; preds = %80
  %86 = load ptr, ptr %5, align 8
  %87 = getelementptr inbounds nuw %struct.RenameStmt, ptr %86, i32 0, i32 6
  %88 = load ptr, ptr %87, align 8
  %89 = icmp ne ptr %88, null
  br i1 %89, label %90, label %99

90:                                               ; preds = %85
  %91 = load ptr, ptr %4, align 8
  %92 = getelementptr inbounds nuw %struct.RenameStmt, ptr %91, i32 0, i32 6
  %93 = load ptr, ptr %92, align 8
  %94 = load ptr, ptr %5, align 8
  %95 = getelementptr inbounds nuw %struct.RenameStmt, ptr %94, i32 0, i32 6
  %96 = load ptr, ptr %95, align 8
  %97 = call i32 @strcmp(ptr noundef %93, ptr noundef %96) #8
  %98 = icmp eq i32 %97, 0
  br i1 %98, label %108, label %107

99:                                               ; preds = %85, %80
  %100 = load ptr, ptr %4, align 8
  %101 = getelementptr inbounds nuw %struct.RenameStmt, ptr %100, i32 0, i32 6
  %102 = load ptr, ptr %101, align 8
  %103 = load ptr, ptr %5, align 8
  %104 = getelementptr inbounds nuw %struct.RenameStmt, ptr %103, i32 0, i32 6
  %105 = load ptr, ptr %104, align 8
  %106 = icmp eq ptr %102, %105
  br i1 %106, label %108, label %107

107:                                              ; preds = %99, %90
  store i1 false, ptr %3, align 1
  br label %136

108:                                              ; preds = %99, %90
  br label %109

109:                                              ; preds = %108
  br label %110

110:                                              ; preds = %109
  %111 = load ptr, ptr %4, align 8
  %112 = getelementptr inbounds nuw %struct.RenameStmt, ptr %111, i32 0, i32 7
  %113 = load i32, ptr %112, align 8
  %114 = load ptr, ptr %5, align 8
  %115 = getelementptr inbounds nuw %struct.RenameStmt, ptr %114, i32 0, i32 7
  %116 = load i32, ptr %115, align 8
  %117 = icmp ne i32 %113, %116
  br i1 %117, label %118, label %119

118:                                              ; preds = %110
  store i1 false, ptr %3, align 1
  br label %136

119:                                              ; preds = %110
  br label %120

120:                                              ; preds = %119
  br label %121

121:                                              ; preds = %120
  %122 = load ptr, ptr %4, align 8
  %123 = getelementptr inbounds nuw %struct.RenameStmt, ptr %122, i32 0, i32 8
  %124 = load i8, ptr %123, align 4, !range !4, !noundef !5
  %125 = trunc i8 %124 to i1
  %126 = zext i1 %125 to i32
  %127 = load ptr, ptr %5, align 8
  %128 = getelementptr inbounds nuw %struct.RenameStmt, ptr %127, i32 0, i32 8
  %129 = load i8, ptr %128, align 4, !range !4, !noundef !5
  %130 = trunc i8 %129 to i1
  %131 = zext i1 %130 to i32
  %132 = icmp ne i32 %126, %131
  br i1 %132, label %133, label %134

133:                                              ; preds = %121
  store i1 false, ptr %3, align 1
  br label %136

134:                                              ; preds = %121
  br label %135

135:                                              ; preds = %134
  store i1 true, ptr %3, align 1
  br label %136

136:                                              ; preds = %135, %133, %118, %107, %77, %47, %36, %25, %14
  %137 = load i1, ptr %3, align 1
  ret i1 %137
}