; Function Attrs: nounwind uwtable
define internal fastcc noundef zeroext i1 @_equalRenameStmt(ptr noundef nonnull readonly captures(none) %0, ptr noundef nonnull readonly captures(none) %1) unnamed_addr #0 {
  %3 = getelementptr inbounds nuw i8, ptr %0, i64 4
  %4 = load i32, ptr %3, align 4
  %5 = getelementptr inbounds nuw i8, ptr %1, i64 4
  %6 = load i32, ptr %5, align 4
  %.not = icmp eq i32 %4, %6
  br i1 %.not, label %7, label %.thread

7:                                                ; preds = %2
  %8 = getelementptr inbounds nuw i8, ptr %0, i64 8
  %9 = load i32, ptr %8, align 8
  %10 = getelementptr inbounds nuw i8, ptr %1, i64 8
  %11 = load i32, ptr %10, align 8
  %.not29 = icmp eq i32 %9, %11
  br i1 %.not29, label %12, label %.thread

12:                                               ; preds = %7
  %13 = getelementptr inbounds nuw i8, ptr %0, i64 16
  %14 = load ptr, ptr %13, align 8
  %15 = getelementptr inbounds nuw i8, ptr %1, i64 16
  %16 = load ptr, ptr %15, align 8
  %17 = tail call zeroext i1 @equal(ptr noundef %14, ptr noundef %16)
  br i1 %17, label %18, label %.thread

18:                                               ; preds = %12
  %19 = getelementptr inbounds nuw i8, ptr %0, i64 24
  %20 = load ptr, ptr %19, align 8
  %21 = getelementptr inbounds nuw i8, ptr %1, i64 24
  %22 = load ptr, ptr %21, align 8
  %23 = tail call zeroext i1 @equal(ptr noundef %20, ptr noundef %22)
  br i1 %23, label %24, label %.thread

24:                                               ; preds = %18
  %25 = getelementptr inbounds nuw i8, ptr %0, i64 32
  %26 = load ptr, ptr %25, align 8
  %.not30 = icmp eq ptr %26, null
  %.phi.trans.insert = getelementptr inbounds nuw i8, ptr %1, i64 32
  %.pre = load ptr, ptr %.phi.trans.insert, align 8
  br i1 %.not30, label %31, label %27

27:                                               ; preds = %24
  %.not31 = icmp eq ptr %.pre, null
  br i1 %.not31, label %.thread, label %28

28:                                               ; preds = %27
  %29 = tail call i32 @strcmp(ptr noundef nonnull dereferenceable(1) %26, ptr noundef nonnull dereferenceable(1) %.pre) #11
  %30 = icmp eq i32 %29, 0
  br i1 %30, label %33, label %.thread

31:                                               ; preds = %24
  %32 = icmp eq ptr %26, %.pre
  br i1 %32, label %33, label %.thread

33:                                               ; preds = %31, %28
  %34 = getelementptr inbounds nuw i8, ptr %0, i64 40
  %35 = load ptr, ptr %34, align 8
  %.not32 = icmp eq ptr %35, null
  %.phi.trans.insert37 = getelementptr inbounds nuw i8, ptr %1, i64 40
  %.pre38 = load ptr, ptr %.phi.trans.insert37, align 8
  br i1 %.not32, label %40, label %36

36:                                               ; preds = %33
  %.not33 = icmp eq ptr %.pre38, null
  br i1 %.not33, label %.thread, label %37

37:                                               ; preds = %36
  %38 = tail call i32 @strcmp(ptr noundef nonnull dereferenceable(1) %35, ptr noundef nonnull dereferenceable(1) %.pre38) #11
  %39 = icmp eq i32 %38, 0
  br i1 %39, label %42, label %.thread

40:                                               ; preds = %33
  %41 = icmp eq ptr %35, %.pre38
  br i1 %41, label %42, label %.thread

42:                                               ; preds = %40, %37
  %43 = getelementptr inbounds nuw i8, ptr %0, i64 48
  %44 = load i32, ptr %43, align 8
  %45 = getelementptr inbounds nuw i8, ptr %1, i64 48
  %46 = load i32, ptr %45, align 8
  %.not34 = icmp eq i32 %44, %46
  br i1 %.not34, label %47, label %.thread

47:                                               ; preds = %42
  %48 = getelementptr inbounds nuw i8, ptr %0, i64 52
  %49 = load i8, ptr %48, align 4, !range !4, !noundef !5
  %50 = getelementptr inbounds nuw i8, ptr %1, i64 52
  %51 = load i8, ptr %50, align 4, !range !4, !noundef !5
  %.not35 = icmp eq i8 %49, %51
  br label %.thread

.thread:                                          ; preds = %36, %27, %47, %42, %37, %40, %28, %31, %18, %12, %7, %2
  %.0 = phi i1 [ false, %2 ], [ false, %7 ], [ false, %12 ], [ false, %18 ], [ false, %31 ], [ false, %28 ], [ false, %40 ], [ false, %37 ], [ false, %42 ], [ %.not35, %47 ], [ false, %27 ], [ false, %36 ]
  ret i1 %.0
}